target datalayout = "e-m:e-p270:32:32-p271:32:32-p272:64:64-i64:64-i128:128-f80:128-n8:16:32:64-S128"
target triple = "x86_64-pc-linux-gnu"

%"struct.gmx::EnumerationArray" = type { [12 x ptr] }
%"class.std::__cxx11::basic_string" = type { %"struct.std::__cxx11::basic_string<char>::_Alloc_hider", i64, %union.anon }
%"struct.std::__cxx11::basic_string<char>::_Alloc_hider" = type { ptr }
%union.anon = type { i64, [8 x i8] }
%"class.std::filesystem::__cxx11::path" = type { %"class.std::__cxx11::basic_string", %"struct.std::filesystem::__cxx11::path::_List" }
%"struct.std::filesystem::__cxx11::path::_List" = type { %"class.std::unique_ptr" }
%"class.std::unique_ptr" = type { %"struct.std::__uniq_ptr_data" }
%"struct.std::__uniq_ptr_data" = type { %"class.std::__uniq_ptr_impl" }
%"class.std::__uniq_ptr_impl" = type { %"class.std::tuple" }
%"class.std::tuple" = type { %"struct.std::_Tuple_impl" }
%"struct.std::_Tuple_impl" = type { %"struct.std::_Head_base.5" }
%"struct.std::_Head_base.5" = type { ptr }

@_ZZ17enumValueToString13PdbRecordTypeE17pdbRecordTypeName = internal constant %"struct.gmx::EnumerationArray" { [12 x ptr] [ptr @.str, ptr @.str.1, ptr @.str.2, ptr @.str.3, ptr @.str.4, ptr @.str.5, ptr @.str.6, ptr @.str.7, ptr @.str.8, ptr @.str.9, ptr @.str.10, ptr @.str.11] }, align 8
@.str.29 = private unnamed_addr constant [122 x i8] c"generated/home/dtcxzyw/WorkSpace/Projects/compilers/llvm-opt-benchmark/bench/gromacs/gromacs/src/gromacs/fileio/pdbio.cpp\00", align 1
@.str.66 = private unnamed_addr constant [56 x i8] c"Can only print PDB atom lines as ATOM or HETATM records\00", align 1
@.str.67 = private unnamed_addr constant [1 x i8] zeroinitializer, align 1
@.str.68 = private unnamed_addr constant [2 x i8] c" \00", align 1
@.str.69 = private unnamed_addr constant [71 x i8] c"%-6s%5d %-4.4s%c%4.4s%c%4d%c   %8.3f%8.3f%8.3f%6.2f%6.2f          %2s\0A\00", align 1

; Function Attrs: mustprogress nounwind uwtable
define linkonce_odr noundef nonnull align 8 dereferenceable(8) ptr @_ZNK3gmx16EnumerationArrayI13PdbRecordTypePKcLS1_12EEixES1_(ptr noundef nonnull align 8 dereferenceable(96) %0, i32 noundef %1) #1 comdat align 2 {
  %3 = alloca ptr, align 8
  %4 = alloca i32, align 4
  store ptr %0, ptr %3, align 8, !tbaa !11
  store i32 %1, ptr %4, align 4, !tbaa !4
  %5 = load ptr, ptr %3, align 8
  %6 = getelementptr inbounds nuw %"struct.gmx::EnumerationArray", ptr %5, i32 0, i32 0
  %7 = load i32, ptr %4, align 4, !tbaa !4
  %8 = sext i32 %7 to i64
  %9 = getelementptr inbounds nuw [12 x ptr], ptr %6, i64 0, i64 %8
  ret ptr %9
}

; Function Attrs: mustprogress uwtable
define noundef ptr @_Z17enumValueToString13PdbRecordType(i32 noundef %0) #0 {
  %2 = alloca i32, align 4
  store i32 %0, ptr %2, align 4, !tbaa !4
  %3 = load i32, ptr %2, align 4, !tbaa !4
  %4 = call noundef nonnull align 8 dereferenceable(8) ptr @_ZNK3gmx16EnumerationArrayI13PdbRecordTypePKcLS1_12EEixES1_(ptr noundef nonnull align 8 dereferenceable(96) @_ZZ17enumValueToString13PdbRecordTypeE17pdbRecordTypeName, i32 noundef %3)
  %5 = load ptr, ptr %4, align 8, !tbaa !8
  ret ptr %5
}

; Function Attrs: mustprogress uwtable
define noundef i32 @_Z24gmx_fprintf_pdb_atomlineP8_IO_FILE13PdbRecordTypeiPKccS3_cicfffffS3_(ptr noundef %0, i32 noundef %1, i32 noundef %2, ptr noundef %3, i8 noundef signext %4, ptr noundef %5, i8 noundef signext %6, i32 noundef %7, i8 noundef signext %8, float noundef %9, float noundef %10, float noundef %11, float noundef %12, float noundef %13, ptr noundef %14) #0 personality ptr @__gxx_personality_v0 {
  %16 = alloca ptr, align 8
  %17 = alloca i32, align 4
  %18 = alloca i32, align 4
  %19 = alloca ptr, align 8
  %20 = alloca i8, align 1
  %21 = alloca ptr, align 8
  %22 = alloca i8, align 1
  %23 = alloca i32, align 4
  %24 = alloca i8, align 1
  %25 = alloca float, align 4
  %26 = alloca float, align 4
  %27 = alloca float, align 4
  %28 = alloca float, align 4
  %29 = alloca float, align 4
  %30 = alloca ptr, align 8
  %31 = alloca [6 x i8], align 1
  %32 = alloca [6 x i8], align 1
  %33 = alloca i8, align 1
  %34 = alloca i32, align 4
  %35 = alloca %"class.std::filesystem::__cxx11::path", align 8
  %36 = alloca ptr, align 8
  %37 = alloca i32, align 4
  store ptr %0, ptr %16, align 8, !tbaa !13
  store i32 %1, ptr %17, align 4, !tbaa !4
  store i32 %2, ptr %18, align 4, !tbaa !21
  store ptr %3, ptr %19, align 8, !tbaa !8
  store i8 %4, ptr %20, align 1, !tbaa !25
  store ptr %5, ptr %21, align 8, !tbaa !8
  store i8 %6, ptr %22, align 1, !tbaa !25
  store i32 %7, ptr %23, align 4, !tbaa !21
  store i8 %8, ptr %24, align 1, !tbaa !25
  store float %9, ptr %25, align 4, !tbaa !19
  store float %10, ptr %26, align 4, !tbaa !19
  store float %11, ptr %27, align 4, !tbaa !19
  store float %12, ptr %28, align 4, !tbaa !19
  store float %13, ptr %29, align 4, !tbaa !19
  store ptr %14, ptr %30, align 8, !tbaa !8
  call void @llvm.lifetime.start.p0(i64 6, ptr %31) #15
  call void @llvm.lifetime.start.p0(i64 6, ptr %32) #15
  call void @llvm.lifetime.start.p0(i64 1, ptr %33) #15
  call void @llvm.lifetime.start.p0(i64 4, ptr %34) #15
  %38 = load i32, ptr %17, align 4, !tbaa !4
  %39 = icmp ne i32 %38, 0
  br i1 %39, label %40, label %49

40:                                               ; preds = %15
  %41 = load i32, ptr %17, align 4, !tbaa !4
  %42 = icmp ne i32 %41, 1
  br i1 %42, label %43, label %49

43:                                               ; preds = %40
  call void @llvm.lifetime.start.p0(i64 40, ptr %35) #15
  call void @_ZNSt10filesystem7__cxx114pathC2IA122_cS1_EERKT_NS1_6formatE(ptr noundef nonnull align 8 dereferenceable(40) %35, ptr noundef nonnull align 1 dereferenceable(122) @.str.29, i8 noundef zeroext 2)
  invoke void (i32, ptr, i32, ptr, ...) @_Z9gmx_fataliRKNSt10filesystem7__cxx114pathEiPKcz(i32 noundef 0, ptr noundef nonnull align 8 dereferenceable(40) %35, i32 noundef 1125, ptr noundef @.str.66) #21
          to label %44 unwind label %45

44:                                               ; preds = %43
  unreachable

45:                                               ; preds = %43
  %46 = landingpad { ptr, i32 }
          cleanup
  %47 = extractvalue { ptr, i32 } %46, 0
  store ptr %47, ptr %36, align 8
  %48 = extractvalue { ptr, i32 } %46, 1
  store i32 %48, ptr %37, align 4
  call void @_ZNSt10filesystem7__cxx114pathD2Ev(ptr noundef nonnull align 8 dereferenceable(40) %35) #15
  call void @llvm.lifetime.end.p0(i64 40, ptr %35) #15
  call void @llvm.lifetime.end.p0(i64 4, ptr %34) #15
  call void @llvm.lifetime.end.p0(i64 1, ptr %33) #15
  call void @llvm.lifetime.end.p0(i64 6, ptr %32) #15
  call void @llvm.lifetime.end.p0(i64 6, ptr %31) #15
  br label %131

49:                                               ; preds = %40, %15
  %50 = load ptr, ptr %19, align 8, !tbaa !8
  %51 = icmp ne ptr %50, null
  br i1 %51, label %52, label %80

52:                                               ; preds = %49
  %53 = load ptr, ptr %30, align 8, !tbaa !8
  %54 = icmp ne ptr %53, null
  br i1 %54, label %55, label %65

55:                                               ; preds = %52
  %56 = load ptr, ptr %30, align 8, !tbaa !8
  %57 = call i64 @strlen(ptr noundef %56) #19
  %58 = icmp uge i64 %57, 2
  br i1 %58, label %59, label %65

59:                                               ; preds = %55
  %60 = load ptr, ptr %19, align 8, !tbaa !8
  %61 = load ptr, ptr %30, align 8, !tbaa !8
  %62 = call noundef i32 @_Z15gmx_strncasecmpPKcS0_i(ptr noundef %60, ptr noundef %61, i32 noundef 2)
  %63 = icmp eq i32 %62, 0
  br i1 %63, label %64, label %65

64:                                               ; preds = %59
  store i8 1, ptr %33, align 1, !tbaa !30
  br label %70

65:                                               ; preds = %59, %55, %52
  %66 = load ptr, ptr %19, align 8, !tbaa !8
  %67 = call i64 @strlen(ptr noundef %66) #19
  %68 = icmp uge i64 %67, 4
  %69 = zext i1 %68 to i8
  store i8 %69, ptr %33, align 1, !tbaa !30
  br label %70

70:                                               ; preds = %65, %64
  %71 = getelementptr inbounds [6 x i8], ptr %31, i64 0, i64 0
  %72 = load i8, ptr %33, align 1, !tbaa !30, !range !32, !noundef !33
  %73 = trunc i8 %72 to i1
  %74 = select i1 %73, ptr @.str.67, ptr @.str.68
  %75 = call i32 (ptr, i64, ptr, ...) @snprintf(ptr noundef %71, i64 noundef 6, ptr noundef %74) #15
  %76 = getelementptr inbounds [6 x i8], ptr %31, i64 0, i64 0
  %77 = load ptr, ptr %19, align 8, !tbaa !8
  %78 = call ptr @strncat(ptr noundef %76, ptr noundef %77, i64 noundef 4) #15
  %79 = getelementptr inbounds [6 x i8], ptr %31, i64 0, i64 5
  store i8 0, ptr %79, align 1, !tbaa !25
  br label %82

80:                                               ; preds = %49
  %81 = getelementptr inbounds [6 x i8], ptr %31, i64 0, i64 0
  store i8 0, ptr %81, align 1, !tbaa !25
  br label %82

82:                                               ; preds = %80, %70
  %83 = getelementptr inbounds [6 x i8], ptr %32, i64 0, i64 0
  %84 = load ptr, ptr %21, align 8, !tbaa !8
  %85 = icmp ne ptr %84, null
  br i1 %85, label %86, label %88

86:                                               ; preds = %82
  %87 = load ptr, ptr %21, align 8, !tbaa !8
  br label %89

88:                                               ; preds = %82
  br label %89

89:                                               ; preds = %88, %86
  %90 = phi ptr [ %87, %86 ], [ @.str.67, %88 ]
  %91 = call ptr @strncpy(ptr noundef %83, ptr noundef %90, i64 noundef 4) #15
  %92 = getelementptr inbounds [6 x i8], ptr %32, i64 0, i64 4
  store i8 0, ptr %92, align 1, !tbaa !25
  %93 = getelementptr inbounds [6 x i8], ptr %32, i64 0, i64 0
  %94 = call ptr @strcat(ptr noundef %93, ptr noundef @.str.68) #15
  %95 = load i32, ptr %18, align 4, !tbaa !21
  %96 = srem i32 %95, 100000
  store i32 %96, ptr %18, align 4, !tbaa !21
  %97 = load i32, ptr %23, align 4, !tbaa !21
  %98 = srem i32 %97, 10000
  store i32 %98, ptr %23, align 4, !tbaa !21
  %99 = load ptr, ptr %16, align 8, !tbaa !13
  %100 = load i32, ptr %17, align 4, !tbaa !4
  %101 = call noundef ptr @_Z17enumValueToString13PdbRecordType(i32 noundef %100)
  %102 = load i32, ptr %18, align 4, !tbaa !21
  %103 = getelementptr inbounds [6 x i8], ptr %31, i64 0, i64 0
  %104 = load i8, ptr %20, align 1, !tbaa !25
  %105 = sext i8 %104 to i32
  %106 = getelementptr inbounds [6 x i8], ptr %32, i64 0, i64 0
  %107 = load i8, ptr %22, align 1, !tbaa !25
  %108 = sext i8 %107 to i32
  %109 = load i32, ptr %23, align 4, !tbaa !21
  %110 = load i8, ptr %24, align 1, !tbaa !25
  %111 = sext i8 %110 to i32
  %112 = load float, ptr %25, align 4, !tbaa !19
  %113 = fpext float %112 to double
  %114 = load float, ptr %26, align 4, !tbaa !19
  %115 = fpext float %114 to double
  %116 = load float, ptr %27, align 4, !tbaa !19
  %117 = fpext float %116 to double
  %118 = load float, ptr %28, align 4, !tbaa !19
  %119 = fpext float %118 to double
  %120 = load float, ptr %29, align 4, !tbaa !19
  %121 = fpext float %120 to double
  %122 = load ptr, ptr %30, align 8, !tbaa !8
  %123 = icmp ne ptr %122, null
  br i1 %123, label %124, label %126

124:                                              ; preds = %89
  %125 = load ptr, ptr %30, align 8, !tbaa !8
  br label %127

126:                                              ; preds = %89
  br label %127

127:                                              ; preds = %126, %124
  %128 = phi ptr [ %125, %124 ], [ @.str.67, %126 ]
  %129 = call i32 (ptr, ptr, ...) @fprintf(ptr noundef %99, ptr noundef @.str.69, ptr noundef %101, i32 noundef %102, ptr noundef %103, i32 noundef %105, ptr noundef %106, i32 noundef %108, i32 noundef %109, i32 noundef %111, double noundef %113, double noundef %115, double noundef %117, double noundef %119, double noundef %121, ptr noundef %128) #15
  store i32 %129, ptr %34, align 4, !tbaa !21
  %130 = load i32, ptr %34, align 4, !tbaa !21
  call void @llvm.lifetime.end.p0(i64 4, ptr %34) #15
  call void @llvm.lifetime.end.p0(i64 1, ptr %33) #15
  call void @llvm.lifetime.end.p0(i64 6, ptr %32) #15
  call void @llvm.lifetime.end.p0(i64 6, ptr %31) #15
  ret i32 %130

131:                                              ; preds = %45
  %132 = load ptr, ptr %36, align 8
  %133 = load i32, ptr %37, align 4
  %134 = insertvalue { ptr, i32 } poison, ptr %132, 0
  %135 = insertvalue { ptr, i32 } %134, i32 %133, 1
  resume { ptr, i32 } %135
}