; Function Attrs: mustprogress uwtable
define noundef i32 @_Z24gmx_fprintf_pdb_atomlineP8_IO_FILE13PdbRecordTypeiPKccS3_cicfffffS3_(ptr noundef captures(none) %0, i32 noundef %1, i32 noundef %2, ptr noundef %3, i8 noundef signext %4, ptr noundef readonly %5, i8 noundef signext %6, i32 noundef %7, i8 noundef signext %8, float noundef %9, float noundef %10, float noundef %11, float noundef %12, float noundef %13, ptr noundef %14) local_unnamed_addr #1 personality ptr @__gxx_personality_v0 {
  %16 = alloca [6 x i8], align 1
  %17 = alloca [6 x i8], align 1
  %18 = alloca %"class.std::filesystem::__cxx11::path", align 8
  call void @llvm.lifetime.start.p0(i64 6, ptr nonnull %16) #28
  call void @llvm.lifetime.start.p0(i64 6, ptr nonnull %17) #28
  %or.cond = icmp ugt i32 %1, 1
  br i1 %or.cond, label %19, label %23

19:                                               ; preds = %15
  call void @llvm.lifetime.start.p0(i64 40, ptr nonnull %18) #28
  call void @_ZNSt10filesystem7__cxx114pathC2IA122_cS1_EERKT_NS1_6formatE(ptr noundef nonnull align 8 dereferenceable(40) %18, ptr noundef nonnull align 1 dereferenceable(122) @.str.29, i8 noundef zeroext 2)
  invoke void (i32, ptr, i32, ptr, ...) @_Z9gmx_fataliRKNSt10filesystem7__cxx114pathEiPKcz(i32 noundef 0, ptr noundef nonnull align 8 dereferenceable(40) %18, i32 noundef 1125, ptr noundef nonnull @.str.66) #30
          to label %20 unwind label %21

20:                                               ; preds = %19
  unreachable

21:                                               ; preds = %19
  %22 = landingpad { ptr, i32 }
          cleanup
  call void @_ZNSt10filesystem7__cxx114pathD2Ev(ptr noundef nonnull align 8 dereferenceable(40) %18) #28
  call void @llvm.lifetime.end.p0(i64 40, ptr nonnull %18) #28
  call void @llvm.lifetime.end.p0(i64 6, ptr nonnull %17) #28
  call void @llvm.lifetime.end.p0(i64 6, ptr nonnull %16) #28
  resume { ptr, i32 } %22

23:                                               ; preds = %15
  %.not = icmp eq ptr %3, null
  br i1 %.not, label %39, label %24

24:                                               ; preds = %23
  %.not33 = icmp eq ptr %14, null
  br i1 %.not33, label %31, label %25

25:                                               ; preds = %24
  %26 = tail call i64 @strlen(ptr noundef nonnull dereferenceable(1) %14) #31
  %27 = icmp ugt i64 %26, 1
  br i1 %27, label %28, label %31

28:                                               ; preds = %25
  %29 = tail call noundef i32 @_Z15gmx_strncasecmpPKcS0_i(ptr noundef nonnull %3, ptr noundef nonnull %14, i32 noundef 2)
  %30 = icmp eq i32 %29, 0
  br i1 %30, label %35, label %31

31:                                               ; preds = %28, %25, %24
  %32 = tail call i64 @strlen(ptr noundef nonnull dereferenceable(1) %3) #31
  %33 = icmp ugt i64 %32, 3
  %34 = select i1 %33, ptr @.str.67, ptr @.str.68
  br label %35

35:                                               ; preds = %28, %31
  %.0 = phi ptr [ %34, %31 ], [ @.str.67, %28 ]
  %36 = call i32 (ptr, i64, ptr, ...) @snprintf(ptr noundef nonnull dereferenceable(1) %16, i64 noundef 6, ptr noundef nonnull %.0) #28
  %37 = call ptr @strncat(ptr noundef nonnull dereferenceable(1) %16, ptr noundef nonnull dereferenceable(1) %3, i64 noundef 4) #28
  %38 = getelementptr inbounds nuw i8, ptr %16, i64 5
  store i8 0, ptr %38, align 1, !tbaa !13
  br label %40

39:                                               ; preds = %23
  store i8 0, ptr %16, align 1, !tbaa !13
  br label %40

40:                                               ; preds = %39, %35
  %.not34 = icmp eq ptr %5, null
  %41 = select i1 %.not34, ptr @.str.67, ptr %5
  %42 = call ptr @strncpy(ptr noundef nonnull dereferenceable(1) %17, ptr noundef nonnull dereferenceable(1) %41, i64 noundef 4) #28
  %43 = getelementptr inbounds nuw i8, ptr %17, i64 4
  store i8 0, ptr %43, align 1, !tbaa !13
  %strlen = call i64 @strlen(ptr nonnull dereferenceable(1) %17)
  %endptr = getelementptr inbounds i8, ptr %17, i64 %strlen
  store i16 32, ptr %endptr, align 1
  %44 = srem i32 %2, 100000
  %45 = srem i32 %7, 10000
  %46 = zext nneg i32 %1 to i64
  %47 = getelementptr inbounds nuw [12 x ptr], ptr @_ZZ17enumValueToString13PdbRecordTypeE17pdbRecordTypeName, i64 0, i64 %46
  %48 = load ptr, ptr %47, align 8, !tbaa !4
  %49 = sext i8 %4 to i32
  %50 = sext i8 %6 to i32
  %51 = sext i8 %8 to i32
  %52 = fpext float %9 to double
  %53 = fpext float %10 to double
  %54 = fpext float %11 to double
  %55 = fpext float %12 to double
  %56 = fpext float %13 to double
  %.not35 = icmp eq ptr %14, null
  %57 = select i1 %.not35, ptr @.str.67, ptr %14
  %58 = call i32 (ptr, ptr, ...) @fprintf(ptr noundef %0, ptr noundef nonnull @.str.69, ptr noundef %48, i32 noundef %44, ptr noundef nonnull %16, i32 noundef %49, ptr noundef nonnull %17, i32 noundef %50, i32 noundef %45, i32 noundef %51, double noundef %52, double noundef %53, double noundef %54, double noundef %55, double noundef %56, ptr noundef nonnull %57) #28
  call void @llvm.lifetime.end.p0(i64 6, ptr nonnull %17) #28
  call void @llvm.lifetime.end.p0(i64 6, ptr nonnull %16) #28
  ret i32 %58
}